; Function Attrs: nounwind uwtable
define noalias noundef ptr @Acb_FindSupportStart(ptr noundef %0, i32 noundef %1, ptr noundef readonly captures(none) %2, ptr noundef writeonly captures(none) %3, ptr noundef writeonly captures(none) %4) local_unnamed_addr #0 {
  %6 = getelementptr i8, ptr %2, i64 4
  %.val = load i32, ptr %6, align 4
  %7 = tail call noalias dereferenceable_or_null(16) ptr @malloc(i64 noundef 16) #29
  %8 = getelementptr inbounds nuw i8, ptr %7, i64 4
  store i32 0, ptr %8, align 4
  store i32 100, ptr %7, align 8
  %9 = tail call noalias dereferenceable_or_null(400) ptr @malloc(i64 noundef 400) #29
  %10 = getelementptr inbounds nuw i8, ptr %7, i64 8
  store ptr %9, ptr %10, align 8
  %11 = shl nsw i32 %.val, 8
  %12 = tail call noalias dereferenceable_or_null(16) ptr @malloc(i64 noundef 16) #29
  store i32 %11, ptr %12, align 8
  %.not.i.i = icmp eq i32 %.val, 0
  br i1 %.not.i.i, label %Vec_WrdStart.exit, label %13

13:                                               ; preds = %5
  %14 = sext i32 %11 to i64
  %15 = shl nsw i64 %14, 3
  %16 = tail call noalias ptr @malloc(i64 noundef %15) #29
  br label %Vec_WrdStart.exit

Vec_WrdStart.exit:                                ; preds = %5, %13
  %.pre-phi50 = phi i64 [ %15, %13 ], [ 0, %5 ]
  %17 = phi ptr [ %16, %13 ], [ null, %5 ]
  %18 = getelementptr inbounds nuw i8, ptr %12, i64 4
  %19 = getelementptr inbounds nuw i8, ptr %12, i64 8
  store ptr %17, ptr %19, align 8
  store i32 %11, ptr %18, align 4
  tail call void @llvm.memset.p0.i64(ptr align 8 %17, i8 0, i64 %.pre-phi50, i1 false)
  %20 = tail call i32 @sat_solver_solve(ptr noundef %0, ptr noundef %9, ptr noundef %9, i64 noundef 0, i64 noundef 0, i64 noundef 0, i64 noundef 0) #31
  %21 = icmp eq i32 %20, -1
  br i1 %21, label %._crit_edge41, label %.preheader.lr.ph

.preheader.lr.ph:                                 ; preds = %Vec_WrdStart.exit
  %22 = icmp sgt i32 %.val, 0
  %23 = getelementptr i8, ptr %0, i64 328
  br i1 %22, label %.preheader.us.preheader, label %._crit_edge41

.preheader.us.preheader:                          ; preds = %.preheader.lr.ph
  %24 = sext i32 %1 to i64
  %wide.trip.count = zext nneg i32 %.val to i64
  br label %.preheader.us

.preheader.us:                                    ; preds = %.preheader.us.preheader, %30
  %.02640.us = phi i32 [ %31, %30 ], [ 0, %.preheader.us.preheader ]
  %25 = and i32 %.02640.us, 63
  %26 = zext nneg i32 %25 to i64
  %27 = shl nuw i64 1, %26
  %28 = lshr i32 %.02640.us, 6
  %29 = zext nneg i32 %28 to i64
  br label %36

30:                                               ; preds = %._crit_edge.us
  %31 = add nuw nsw i32 %.02640.us, 1
  %32 = sext i32 %.val28.pre.pre to i64
  %33 = getelementptr inbounds i32, ptr %.val29.pre.pre, i64 %32
  %34 = tail call i32 @sat_solver_solve(ptr noundef nonnull %0, ptr noundef %.val29.pre.pre, ptr noundef %33, i64 noundef 0, i64 noundef 0, i64 noundef 0, i64 noundef 0) #31
  %35 = icmp eq i32 %34, -1
  br i1 %35, label %._crit_edge41.loopexit, label %.preheader.us

36:                                               ; preds = %.preheader.us, %75
  %indvars.iv = phi i64 [ 0, %.preheader.us ], [ %indvars.iv.next, %75 ]
  %.037.us = phi i32 [ 0, %.preheader.us ], [ %.1.us, %75 ]
  %37 = add nsw i64 %indvars.iv, %24
  %.val34.us = load ptr, ptr %23, align 8
  %38 = getelementptr inbounds i32, ptr %.val34.us, i64 %37
  %39 = load i32, ptr %38, align 4
  %.not35.us = icmp eq i32 %39, 1
  br i1 %.not35.us, label %40, label %75

40:                                               ; preds = %36
  %.val31.us = load ptr, ptr %19, align 8
  %.idx = shl nsw i64 %indvars.iv, 11
  %41 = getelementptr inbounds nuw i8, ptr %.val31.us, i64 %.idx
  %42 = getelementptr inbounds nuw i64, ptr %41, i64 %29
  %43 = load i64, ptr %42, align 8
  %44 = or i64 %43, %27
  store i64 %44, ptr %42, align 8
  %.not.us = icmp eq i32 %.037.us, 0
  br i1 %.not.us, label %45, label %75

45:                                               ; preds = %40
  %46 = load i32, ptr %8, align 4
  %47 = load i32, ptr %7, align 8
  %48 = icmp eq i32 %46, %47
  br i1 %48, label %49, label %.Vec_IntGrow.exit10_crit_edge.i.us

.Vec_IntGrow.exit10_crit_edge.i.us:               ; preds = %45
  %.pre.i.us = load ptr, ptr %10, align 8
  br label %Vec_IntPush.exit.us

49:                                               ; preds = %45
  %50 = icmp slt i32 %46, 16
  br i1 %50, label %62, label %51

51:                                               ; preds = %49
  %52 = shl nuw nsw i32 %46, 1
  %53 = load ptr, ptr %10, align 8
  %.not9.i9.i.us = icmp eq ptr %53, null
  %54 = zext nneg i32 %52 to i64
  %55 = shl nuw nsw i64 %54, 2
  br i1 %.not9.i9.i.us, label %58, label %56

56:                                               ; preds = %51
  %57 = tail call ptr @realloc(ptr noundef nonnull %53, i64 noundef %55) #30
  br label %60

58:                                               ; preds = %51
  %59 = tail call noalias ptr @malloc(i64 noundef %55) #29
  br label %60

60:                                               ; preds = %58, %56
  %61 = phi ptr [ %57, %56 ], [ %59, %58 ]
  store ptr %61, ptr %10, align 8
  store i32 %52, ptr %7, align 8
  br label %Vec_IntPush.exit.us

62:                                               ; preds = %49
  %63 = load ptr, ptr %10, align 8
  %.not9.i.i.us = icmp eq ptr %63, null
  br i1 %.not9.i.i.us, label %66, label %64

64:                                               ; preds = %62
  %65 = tail call dereferenceable_or_null(64) ptr @realloc(ptr noundef nonnull %63, i64 noundef 64) #30
  br label %Vec_IntGrow.exit.i.us

66:                                               ; preds = %62
  %67 = tail call noalias dereferenceable_or_null(64) ptr @malloc(i64 noundef 64) #29
  br label %Vec_IntGrow.exit.i.us

Vec_IntGrow.exit.i.us:                            ; preds = %66, %64
  %68 = phi ptr [ %65, %64 ], [ %67, %66 ]
  store ptr %68, ptr %10, align 8
  store i32 16, ptr %7, align 8
  br label %Vec_IntPush.exit.us

Vec_IntPush.exit.us:                              ; preds = %Vec_IntGrow.exit.i.us, %60, %.Vec_IntGrow.exit10_crit_edge.i.us
  %69 = phi ptr [ %.pre.i.us, %.Vec_IntGrow.exit10_crit_edge.i.us ], [ %61, %60 ], [ %68, %Vec_IntGrow.exit.i.us ]
  %70 = add nsw i32 %46, 1
  store i32 %70, ptr %8, align 4
  %71 = sext i32 %46 to i64
  %72 = getelementptr inbounds i32, ptr %69, i64 %71
  %.tr = trunc i64 %37 to i32
  %73 = shl i32 %.tr, 1
  %74 = or disjoint i32 %73, 1
  store i32 %74, ptr %72, align 4
  br label %75

75:                                               ; preds = %Vec_IntPush.exit.us, %40, %36
  %.1.us = phi i32 [ %.037.us, %36 ], [ 1, %40 ], [ 1, %Vec_IntPush.exit.us ]
  %indvars.iv.next = add nuw nsw i64 %indvars.iv, 1
  %exitcond.not = icmp eq i64 %indvars.iv.next, %wide.trip.count
  br i1 %exitcond.not, label %._crit_edge.us, label %36, !llvm.loop !93

._crit_edge.us:                                   ; preds = %75
  %76 = icmp eq i32 %.1.us, 0
  %.val28.pre.pre = load i32, ptr %8, align 4
  %.val29.pre.pre = load ptr, ptr %10, align 8
  br i1 %76, label %._crit_edge41.loopexit, label %30

._crit_edge41.loopexit:                           ; preds = %._crit_edge.us, %30
  %.026.lcssa.ph = phi i32 [ %31, %30 ], [ %.02640.us, %._crit_edge.us ]
  %77 = sext i32 %.val28.pre.pre to i64
  br label %._crit_edge41

._crit_edge41:                                    ; preds = %._crit_edge41.loopexit, %.preheader.lr.ph, %Vec_WrdStart.exit
  %.val29 = phi ptr [ %9, %Vec_WrdStart.exit ], [ %9, %.preheader.lr.ph ], [ %.val29.pre.pre, %._crit_edge41.loopexit ]
  %.val28 = phi i64 [ 0, %Vec_WrdStart.exit ], [ 0, %.preheader.lr.ph ], [ %77, %._crit_edge41.loopexit ]
  %.026.lcssa = phi i32 [ 0, %Vec_WrdStart.exit ], [ 0, %.preheader.lr.ph ], [ %.026.lcssa.ph, %._crit_edge41.loopexit ]
  store i32 %.026.lcssa, ptr %4, align 4
  store ptr %12, ptr %3, align 8
  tail call void @qsort(ptr noundef %.val29, i64 noundef %.val28, i64 noundef 4, ptr noundef nonnull @Vec_IntSortCompare1) #31
  ret ptr %7
}